; Function Attrs: nounwind uwtable
define internal range(i32 0, 2) i32 @_blendop_blendif_disp_alternative_mag(ptr noundef %0, ptr noundef readonly captures(none) %1, i32 noundef %2) #0 {
  %4 = tail call ptr @dcgettext(ptr noundef null, ptr noundef nonnull @.str.209, i32 noundef 5) #18
  %5 = getelementptr i8, ptr %1, i64 776
  %.val = load ptr, ptr %5, align 8, !tbaa !6
  %6 = getelementptr inbounds nuw i8, ptr %.val, i64 208
  %7 = load ptr, ptr %6, align 8, !tbaa !108
  %8 = icmp eq ptr %0, %7
  %9 = icmp eq i32 %2, 1
  %10 = select i1 %9, ptr @magnifier_scale_callback, ptr null
  tail call void @dtgtk_gradient_slider_multivalue_set_scale_callback(ptr noundef %0, ptr noundef %10) #18
  %.str.120..str.121.i = select i1 %8, ptr @.str.120, ptr @.str.121
  %..i = select i1 %8, i64 80, i64 8
  %11 = tail call ptr @dcgettext(ptr noundef null, ptr noundef nonnull %.str.120..str.121.i, i32 noundef 5) #18
  %12 = getelementptr inbounds nuw i8, ptr %.val, i64 136
  %13 = select i1 %9, ptr %4, ptr @.str.107
  %14 = tail call noalias ptr (ptr, ...) @g_strdup_printf(ptr noundef nonnull @.str.205, ptr noundef %11, ptr noundef %13) #18
  %15 = getelementptr inbounds nuw i8, ptr %12, i64 %..i
  %16 = load ptr, ptr %15, align 8, !tbaa !138
  tail call void @gtk_label_set_text(ptr noundef %16, ptr noundef %14) #18
  tail call void @g_free(ptr noundef %14) #18
  %17 = zext i1 %9 to i32
  ret i32 %17
}